target datalayout = "e-m:e-p270:32:32-p271:32:32-p272:64:64-i64:64-i128:128-f80:128-n8:16:32:64-S128"
target triple = "x86_64-pc-linux-gnu"

%"class.std::__cxx11::basic_string" = type { %"struct.std::__cxx11::basic_string<char>::_Alloc_hider", i64, %union.anon }
%"struct.std::__cxx11::basic_string<char>::_Alloc_hider" = type { ptr }
%union.anon = type { i64, [8 x i8] }
%"struct.DeformationModel::GridPrototype" = type { double, double, double, double, i32, i32 }
%"struct.(anonymous namespace)::Grid" = type { %"struct.DeformationModel::GridPrototype", ptr, ptr, i8, i8, i32, i32, i32 }
%"struct.osgeo::proj::ExtentAndRes" = type { i8, double, double, double, double, double, double, double, double }
%"class.osgeo::proj::Grid" = type { ptr, %"class.std::__cxx11::basic_string", i32, i32, %"struct.osgeo::proj::ExtentAndRes" }

@_ZN16DeformationModelL9STR_METREB5cxx11E = internal global %"class.std::__cxx11::basic_string" zeroinitializer, align 8
@.str.138 = private unnamed_addr constant [31 x i8] c"grid %s has not enough samples\00", align 1
@.str.139 = private unnamed_addr constant [16 x i8] c"vertical_offset\00", align 1
@.str.140 = private unnamed_addr constant [60 x i8] c"grid %s : Found band description, but not the ones expected\00", align 1
@.str.141 = private unnamed_addr constant [58 x i8] c"grid %s : Only unit=metre currently handled for this mode\00", align 1

; Function Attrs: noreturn nounwind uwtable
define linkonce_odr hidden void @__clang_call_terminate(ptr noundef %0) #11 comdat {
  %2 = call ptr @__cxa_begin_catch(ptr %0) #5
  call void @_ZSt9terminatev() #20
  unreachable
}

; Function Attrs: mustprogress nounwind uwtable
define linkonce_odr noundef i32 @_ZNSt11char_traitsIcE7compareEPKcS2_m(ptr noundef %0, ptr noundef %1, i64 noundef %2) #0 comdat align 2 {
  %4 = alloca i32, align 4
  %5 = alloca ptr, align 8
  %6 = alloca ptr, align 8
  %7 = alloca i64, align 8
  store ptr %0, ptr %5, align 8
  store ptr %1, ptr %6, align 8
  store i64 %2, ptr %7, align 8
  %8 = load i64, ptr %7, align 8
  %9 = icmp eq i64 %8, 0
  br i1 %9, label %10, label %11

10:                                               ; preds = %3
  store i32 0, ptr %4, align 4
  br label %16

11:                                               ; preds = %3
  %12 = load ptr, ptr %5, align 8
  %13 = load ptr, ptr %6, align 8
  %14 = load i64, ptr %7, align 8
  %15 = call i32 @memcmp(ptr noundef %12, ptr noundef %13, i64 noundef %14) #5
  store i32 %15, ptr %4, align 4
  br label %16

16:                                               ; preds = %11, %10
  %17 = load i32, ptr %4, align 4
  ret i32 %17
}

; Function Attrs: mustprogress nounwind uwtable
define linkonce_odr noundef zeroext i1 @_ZSteqIcEN9__gnu_cxx11__enable_ifIXsr9__is_charIT_EE7__valueEbE6__typeERKNSt7__cxx1112basic_stringIS2_St11char_traitsIS2_ESaIS2_EEESC_(ptr noundef nonnull align 8 dereferenceable(32) %0, ptr noundef nonnull align 8 dereferenceable(32) %1) #0 comdat personality ptr @__gxx_personality_v0 {
  %3 = alloca ptr, align 8
  %4 = alloca ptr, align 8
  store ptr %0, ptr %3, align 8
  store ptr %1, ptr %4, align 8
  %5 = load ptr, ptr %3, align 8
  %6 = call noundef i64 @_ZNKSt7__cxx1112basic_stringIcSt11char_traitsIcESaIcEE4sizeEv(ptr noundef nonnull align 8 dereferenceable(32) %5) #5
  %7 = load ptr, ptr %4, align 8
  %8 = call noundef i64 @_ZNKSt7__cxx1112basic_stringIcSt11char_traitsIcESaIcEE4sizeEv(ptr noundef nonnull align 8 dereferenceable(32) %7) #5
  %9 = icmp eq i64 %6, %8
  br i1 %9, label %10, label %21

10:                                               ; preds = %2
  %11 = load ptr, ptr %3, align 8
  %12 = call noundef ptr @_ZNKSt7__cxx1112basic_stringIcSt11char_traitsIcESaIcEE4dataEv(ptr noundef nonnull align 8 dereferenceable(32) %11) #5
  %13 = load ptr, ptr %4, align 8
  %14 = call noundef ptr @_ZNKSt7__cxx1112basic_stringIcSt11char_traitsIcESaIcEE4dataEv(ptr noundef nonnull align 8 dereferenceable(32) %13) #5
  %15 = load ptr, ptr %3, align 8
  %16 = call noundef i64 @_ZNKSt7__cxx1112basic_stringIcSt11char_traitsIcESaIcEE4sizeEv(ptr noundef nonnull align 8 dereferenceable(32) %15) #5
  %17 = invoke noundef i32 @_ZNSt11char_traitsIcE7compareEPKcS2_m(ptr noundef %12, ptr noundef %14, i64 noundef %16)
          to label %18 unwind label %23

18:                                               ; preds = %10
  %19 = icmp ne i32 %17, 0
  %20 = xor i1 %19, true
  br label %21

21:                                               ; preds = %18, %2
  %22 = phi i1 [ false, %2 ], [ %20, %18 ]
  ret i1 %22

23:                                               ; preds = %10
  %24 = landingpad { ptr, i32 }
          catch ptr null
  %25 = extractvalue { ptr, i32 } %24, 0
  call void @__clang_call_terminate(ptr %25) #20
  unreachable
}

; Function Attrs: mustprogress nounwind uwtable
define linkonce_odr noundef zeroext i1 @_ZStneIcSt11char_traitsIcESaIcEEbRKNSt7__cxx1112basic_stringIT_T0_T1_EESA_(ptr noundef nonnull align 8 dereferenceable(32) %0, ptr noundef nonnull align 8 dereferenceable(32) %1) #0 comdat {
  %3 = alloca ptr, align 8
  %4 = alloca ptr, align 8
  store ptr %0, ptr %3, align 8
  store ptr %1, ptr %4, align 8
  %5 = load ptr, ptr %3, align 8
  %6 = load ptr, ptr %4, align 8
  %7 = call noundef zeroext i1 @_ZSteqIcEN9__gnu_cxx11__enable_ifIXsr9__is_charIT_EE7__valueEbE6__typeERKNSt7__cxx1112basic_stringIS2_St11char_traitsIS2_ESaIS2_EEESC_(ptr noundef nonnull align 8 dereferenceable(32) %5, ptr noundef nonnull align 8 dereferenceable(32) %6) #5
  %8 = xor i1 %7, true
  ret i1 %8
}

; Function Attrs: mustprogress nounwind uwtable
define linkonce_odr noundef zeroext i1 @_ZSteqIcSt11char_traitsIcESaIcEEbRKNSt7__cxx1112basic_stringIT_T0_T1_EEPKS5_(ptr noundef nonnull align 8 dereferenceable(32) %0, ptr noundef %1) #0 comdat {
  %3 = alloca ptr, align 8
  %4 = alloca ptr, align 8
  store ptr %0, ptr %3, align 8
  store ptr %1, ptr %4, align 8
  %5 = load ptr, ptr %3, align 8
  %6 = load ptr, ptr %4, align 8
  %7 = call noundef i32 @_ZNKSt7__cxx1112basic_stringIcSt11char_traitsIcESaIcEE7compareEPKc(ptr noundef nonnull align 8 dereferenceable(32) %5, ptr noundef %6) #5
  %8 = icmp eq i32 %7, 0
  ret i1 %8
}

; Function Attrs: mustprogress nounwind uwtable
define linkonce_odr noundef nonnull align 8 dereferenceable(32) ptr @_ZNK5osgeo4proj4Grid4nameB5cxx11Ev(ptr noundef nonnull align 8 dereferenceable(120) %0) #0 comdat align 2 {
  %2 = alloca ptr, align 8
  store ptr %0, ptr %2, align 8
  %3 = load ptr, ptr %2, align 8
  %4 = getelementptr inbounds %"class.osgeo::proj::Grid", ptr %3, i32 0, i32 1
  ret ptr %4
}

; Function Attrs: mustprogress uwtable
define internal noundef zeroext i1 @_ZNK12_GLOBAL__N_14Grid10getZOffsetEiiRd(ptr noundef nonnull align 8 dereferenceable(72) %0, i32 noundef %1, i32 noundef %2, ptr noundef nonnull align 8 dereferenceable(8) %3) #6 align 2 personality ptr @__gxx_personality_v0 {
  %5 = alloca i1, align 1
  %6 = alloca ptr, align 8
  %7 = alloca i32, align 4
  %8 = alloca i32, align 4
  %9 = alloca ptr, align 8
  %10 = alloca i32, align 4
  %11 = alloca i8, align 1
  %12 = alloca i8, align 1
  %13 = alloca i32, align 4
  %14 = alloca %"class.std::__cxx11::basic_string", align 8
  %15 = alloca ptr, align 8
  %16 = alloca i32, align 4
  %17 = alloca %"class.std::__cxx11::basic_string", align 8
  %18 = alloca i32, align 4
  %19 = alloca float, align 4
  %20 = alloca i8, align 1
  store ptr %0, ptr %6, align 8
  store i32 %1, ptr %7, align 4
  store i32 %2, ptr %8, align 4
  store ptr %3, ptr %9, align 8
  %21 = load ptr, ptr %6, align 8
  %22 = getelementptr inbounds %"struct.(anonymous namespace)::Grid", ptr %21, i32 0, i32 4
  %23 = load i8, ptr %22, align 1
  %24 = trunc i8 %23 to i1
  br i1 %24, label %117, label %25

25:                                               ; preds = %4
  %26 = getelementptr inbounds %"struct.(anonymous namespace)::Grid", ptr %21, i32 0, i32 2
  %27 = load ptr, ptr %26, align 8
  %28 = load ptr, ptr %27, align 8
  %29 = getelementptr inbounds ptr, ptr %28, i64 8
  %30 = load ptr, ptr %29, align 8
  %31 = call noundef i32 %30(ptr noundef nonnull align 8 dereferenceable(144) %27)
  store i32 %31, ptr %10, align 4
  %32 = load i32, ptr %10, align 4
  %33 = icmp eq i32 %32, 1
  br i1 %33, label %34, label %36

34:                                               ; preds = %25
  %35 = getelementptr inbounds %"struct.(anonymous namespace)::Grid", ptr %21, i32 0, i32 7
  store i32 0, ptr %35, align 4
  br label %47

36:                                               ; preds = %25
  %37 = load i32, ptr %10, align 4
  %38 = icmp slt i32 %37, 3
  br i1 %38, label %39, label %46

39:                                               ; preds = %36
  %40 = getelementptr inbounds %"struct.(anonymous namespace)::Grid", ptr %21, i32 0, i32 1
  %41 = load ptr, ptr %40, align 8
  %42 = getelementptr inbounds %"struct.(anonymous namespace)::Grid", ptr %21, i32 0, i32 2
  %43 = load ptr, ptr %42, align 8
  %44 = call noundef nonnull align 8 dereferenceable(32) ptr @_ZNK5osgeo4proj4Grid4nameB5cxx11Ev(ptr noundef nonnull align 8 dereferenceable(120) %43)
  %45 = call noundef ptr @_ZNKSt7__cxx1112basic_stringIcSt11char_traitsIcESaIcEE5c_strEv(ptr noundef nonnull align 8 dereferenceable(32) %44) #5
  call void (ptr, i32, ptr, ...) @_Z6pj_logP6pj_ctxiPKcz(ptr noundef %41, i32 noundef 1, ptr noundef @.str.138, ptr noundef %45)
  store i1 false, ptr %5, align 1
  br label %134

46:                                               ; preds = %36
  br label %47

47:                                               ; preds = %46, %34
  store i8 0, ptr %11, align 1
  store i8 0, ptr %12, align 1
  store i32 0, ptr %13, align 4
  br label %48

48:                                               ; preds = %72, %47
  %49 = load i32, ptr %13, align 4
  %50 = load i32, ptr %10, align 4
  %51 = icmp slt i32 %49, %50
  br i1 %51, label %52, label %75

52:                                               ; preds = %48
  %53 = getelementptr inbounds %"struct.(anonymous namespace)::Grid", ptr %21, i32 0, i32 2
  %54 = load ptr, ptr %53, align 8
  %55 = load i32, ptr %13, align 4
  %56 = load ptr, ptr %54, align 8
  %57 = getelementptr inbounds ptr, ptr %56, i64 7
  %58 = load ptr, ptr %57, align 8
  call void %58(ptr dead_on_unwind writable sret(%"class.std::__cxx11::basic_string") align 8 %14, ptr noundef nonnull align 8 dereferenceable(144) %54, i32 noundef %55)
  %59 = invoke noundef zeroext i1 @_ZSteqIcSt11char_traitsIcESaIcEEbRKNSt7__cxx1112basic_stringIT_T0_T1_EEPKS5_(ptr noundef nonnull align 8 dereferenceable(32) %14, ptr noundef @.str.139)
          to label %60 unwind label %64

60:                                               ; preds = %52
  br i1 %59, label %61, label %68

61:                                               ; preds = %60
  %62 = load i32, ptr %13, align 4
  %63 = getelementptr inbounds %"struct.(anonymous namespace)::Grid", ptr %21, i32 0, i32 7
  store i32 %62, ptr %63, align 4
  store i8 1, ptr %12, align 1
  br label %68

64:                                               ; preds = %52
  %65 = landingpad { ptr, i32 }
          cleanup
  %66 = extractvalue { ptr, i32 } %65, 0
  store ptr %66, ptr %15, align 8
  %67 = extractvalue { ptr, i32 } %65, 1
  store i32 %67, ptr %16, align 4
  call void @_ZNSt7__cxx1112basic_stringIcSt11char_traitsIcESaIcEED1Ev(ptr noundef nonnull align 8 dereferenceable(32) %14) #5
  br label %136

68:                                               ; preds = %61, %60
  %69 = call noundef zeroext i1 @_ZNKSt7__cxx1112basic_stringIcSt11char_traitsIcESaIcEE5emptyEv(ptr noundef nonnull align 8 dereferenceable(32) %14) #5
  br i1 %69, label %71, label %70

70:                                               ; preds = %68
  store i8 1, ptr %11, align 1
  br label %71

71:                                               ; preds = %70, %68
  call void @_ZNSt7__cxx1112basic_stringIcSt11char_traitsIcESaIcEED1Ev(ptr noundef nonnull align 8 dereferenceable(32) %14) #5
  br label %72

72:                                               ; preds = %71
  %73 = load i32, ptr %13, align 4
  %74 = add nsw i32 %73, 1
  store i32 %74, ptr %13, align 4
  br label %48, !llvm.loop !17

75:                                               ; preds = %48
  %76 = load i8, ptr %11, align 1
  %77 = trunc i8 %76 to i1
  br i1 %77, label %78, label %88

78:                                               ; preds = %75
  %79 = load i8, ptr %12, align 1
  %80 = trunc i8 %79 to i1
  br i1 %80, label %88, label %81

81:                                               ; preds = %78
  %82 = getelementptr inbounds %"struct.(anonymous namespace)::Grid", ptr %21, i32 0, i32 1
  %83 = load ptr, ptr %82, align 8
  %84 = getelementptr inbounds %"struct.(anonymous namespace)::Grid", ptr %21, i32 0, i32 2
  %85 = load ptr, ptr %84, align 8
  %86 = call noundef nonnull align 8 dereferenceable(32) ptr @_ZNK5osgeo4proj4Grid4nameB5cxx11Ev(ptr noundef nonnull align 8 dereferenceable(120) %85)
  %87 = call noundef ptr @_ZNKSt7__cxx1112basic_stringIcSt11char_traitsIcESaIcEE5c_strEv(ptr noundef nonnull align 8 dereferenceable(32) %86) #5
  call void (ptr, i32, ptr, ...) @_Z6pj_logP6pj_ctxiPKcz(ptr noundef %83, i32 noundef 1, ptr noundef @.str.140, ptr noundef %87)
  store i1 false, ptr %5, align 1
  br label %134

88:                                               ; preds = %78, %75
  %89 = getelementptr inbounds %"struct.(anonymous namespace)::Grid", ptr %21, i32 0, i32 2
  %90 = load ptr, ptr %89, align 8
  %91 = getelementptr inbounds %"struct.(anonymous namespace)::Grid", ptr %21, i32 0, i32 7
  %92 = load i32, ptr %91, align 4
  %93 = load ptr, ptr %90, align 8
  %94 = getelementptr inbounds ptr, ptr %93, i64 6
  %95 = load ptr, ptr %94, align 8
  call void %95(ptr dead_on_unwind writable sret(%"class.std::__cxx11::basic_string") align 8 %17, ptr noundef nonnull align 8 dereferenceable(144) %90, i32 noundef %92)
  %96 = call noundef zeroext i1 @_ZNKSt7__cxx1112basic_stringIcSt11char_traitsIcESaIcEE5emptyEv(ptr noundef nonnull align 8 dereferenceable(32) %17) #5
  br i1 %96, label %112, label %97

97:                                               ; preds = %88
  %98 = call noundef zeroext i1 @_ZStneIcSt11char_traitsIcESaIcEEbRKNSt7__cxx1112basic_stringIT_T0_T1_EESA_(ptr noundef nonnull align 8 dereferenceable(32) %17, ptr noundef nonnull align 8 dereferenceable(32) @_ZN16DeformationModelL9STR_METREB5cxx11E) #5
  br i1 %98, label %99, label %112

99:                                               ; preds = %97
  %100 = getelementptr inbounds %"struct.(anonymous namespace)::Grid", ptr %21, i32 0, i32 1
  %101 = load ptr, ptr %100, align 8
  %102 = getelementptr inbounds %"struct.(anonymous namespace)::Grid", ptr %21, i32 0, i32 2
  %103 = load ptr, ptr %102, align 8
  %104 = invoke noundef nonnull align 8 dereferenceable(32) ptr @_ZNK5osgeo4proj4Grid4nameB5cxx11Ev(ptr noundef nonnull align 8 dereferenceable(120) %103)
          to label %105 unwind label %108

105:                                              ; preds = %99
  %106 = call noundef ptr @_ZNKSt7__cxx1112basic_stringIcSt11char_traitsIcESaIcEE5c_strEv(ptr noundef nonnull align 8 dereferenceable(32) %104) #5
  invoke void (ptr, i32, ptr, ...) @_Z6pj_logP6pj_ctxiPKcz(ptr noundef %101, i32 noundef 1, ptr noundef @.str.141, ptr noundef %106)
          to label %107 unwind label %108

107:                                              ; preds = %105
  store i1 false, ptr %5, align 1
  store i32 1, ptr %18, align 4
  br label %114

108:                                              ; preds = %105, %99
  %109 = landingpad { ptr, i32 }
          cleanup
  %110 = extractvalue { ptr, i32 } %109, 0
  store ptr %110, ptr %15, align 8
  %111 = extractvalue { ptr, i32 } %109, 1
  store i32 %111, ptr %16, align 4
  call void @_ZNSt7__cxx1112basic_stringIcSt11char_traitsIcESaIcEED1Ev(ptr noundef nonnull align 8 dereferenceable(32) %17) #5
  br label %136

112:                                              ; preds = %97, %88
  %113 = getelementptr inbounds %"struct.(anonymous namespace)::Grid", ptr %21, i32 0, i32 4
  store i8 1, ptr %113, align 1
  store i32 0, ptr %18, align 4
  br label %114

114:                                              ; preds = %112, %107
  call void @_ZNSt7__cxx1112basic_stringIcSt11char_traitsIcESaIcEED1Ev(ptr noundef nonnull align 8 dereferenceable(32) %17) #5
  %115 = load i32, ptr %18, align 4
  switch i32 %115, label %141 [
    i32 0, label %116
    i32 1, label %134
  ]

116:                                              ; preds = %114
  br label %117

117:                                              ; preds = %116, %4
  store float 0.000000e+00, ptr %19, align 4
  %118 = getelementptr inbounds %"struct.(anonymous namespace)::Grid", ptr %21, i32 0, i32 2
  %119 = load ptr, ptr %118, align 8
  %120 = load i32, ptr %7, align 4
  %121 = load i32, ptr %8, align 4
  %122 = getelementptr inbounds %"struct.(anonymous namespace)::Grid", ptr %21, i32 0, i32 7
  %123 = load i32, ptr %122, align 4
  %124 = load ptr, ptr %119, align 8
  %125 = getelementptr inbounds ptr, ptr %124, i64 9
  %126 = load ptr, ptr %125, align 8
  %127 = call noundef zeroext i1 %126(ptr noundef nonnull align 8 dereferenceable(144) %119, i32 noundef %120, i32 noundef %121, i32 noundef %123, ptr noundef nonnull align 4 dereferenceable(4) %19)
  %128 = zext i1 %127 to i8
  store i8 %128, ptr %20, align 1
  %129 = load float, ptr %19, align 4
  %130 = fpext float %129 to double
  %131 = load ptr, ptr %9, align 8
  store double %130, ptr %131, align 8
  %132 = load i8, ptr %20, align 1
  %133 = trunc i8 %132 to i1
  store i1 %133, ptr %5, align 1
  br label %134

134:                                              ; preds = %117, %114, %81, %39
  %135 = load i1, ptr %5, align 1
  ret i1 %135

136:                                              ; preds = %108, %64
  %137 = load ptr, ptr %15, align 8
  %138 = load i32, ptr %16, align 4
  %139 = insertvalue { ptr, i32 } poison, ptr %137, 0
  %140 = insertvalue { ptr, i32 } %139, i32 %138, 1
  resume { ptr, i32 } %140

141:                                              ; preds = %114
  unreachable
}