; Function Attrs: mustprogress uwtable
define internal fastcc noundef zeroext i1 @_ZNK12_GLOBAL__N_14Grid10getZOffsetEiiRd(ptr nocapture noundef nonnull align 8 dereferenceable(72) %0, i32 noundef %1, i32 noundef %2, ptr nocapture noundef nonnull writeonly align 8 dereferenceable(8) %3) unnamed_addr #6 align 2 personality ptr @__gxx_personality_v0 {
  %5 = alloca %"class.std::__cxx11::basic_string", align 8
  %6 = alloca %"class.std::__cxx11::basic_string", align 8
  %7 = alloca float, align 4
  %8 = getelementptr inbounds i8, ptr %0, i64 57
  %9 = load i8, ptr %8, align 1
  %10 = trunc i8 %9 to i1
  br i1 %10, label %74, label %11

11:                                               ; preds = %4
  %12 = getelementptr inbounds i8, ptr %0, i64 48
  %13 = load ptr, ptr %12, align 8
  %14 = load ptr, ptr %13, align 8
  %15 = getelementptr inbounds i8, ptr %14, i64 64
  %16 = load ptr, ptr %15, align 8
  %17 = tail call noundef i32 %16(ptr noundef nonnull align 8 dereferenceable(144) %13)
  %18 = icmp eq i32 %17, 1
  br i1 %18, label %19, label %21

19:                                               ; preds = %11
  %20 = getelementptr inbounds i8, ptr %0, i64 68
  store i32 0, ptr %20, align 4
  br label %.lr.ph

21:                                               ; preds = %11
  %22 = icmp slt i32 %17, 3
  br i1 %22, label %23, label %.lr.ph

23:                                               ; preds = %21
  %24 = getelementptr inbounds i8, ptr %0, i64 40
  %25 = load ptr, ptr %24, align 8
  %26 = load ptr, ptr %12, align 8
  %27 = getelementptr inbounds i8, ptr %26, i64 8
  %28 = tail call noundef ptr @_ZNKSt7__cxx1112basic_stringIcSt11char_traitsIcESaIcEE5c_strEv(ptr noundef nonnull align 8 dereferenceable(32) %27) #29
  tail call void (ptr, i32, ptr, ...) @_Z6pj_logP6pj_ctxiPKcz(ptr noundef %25, i32 noundef 1, ptr noundef nonnull @.str.138, ptr noundef %28)
  br label %85

.lr.ph:                                           ; preds = %19, %21
  %29 = getelementptr inbounds i8, ptr %0, i64 68
  br label %30

30:                                               ; preds = %.lr.ph, %38
  %.01828 = phi i1 [ false, %.lr.ph ], [ %spec.select, %38 ]
  %.02027 = phi i1 [ false, %.lr.ph ], [ %.121, %38 ]
  %.02226 = phi i32 [ 0, %.lr.ph ], [ %40, %38 ]
  %31 = load ptr, ptr %12, align 8
  %32 = load ptr, ptr %31, align 8
  %33 = getelementptr inbounds i8, ptr %32, i64 56
  %34 = load ptr, ptr %33, align 8
  call void %34(ptr dead_on_unwind nonnull writable sret(%"class.std::__cxx11::basic_string") align 8 %5, ptr noundef nonnull align 8 dereferenceable(144) %31, i32 noundef %.02226)
  %35 = call noundef i32 @_ZNKSt7__cxx1112basic_stringIcSt11char_traitsIcESaIcEE7compareEPKc(ptr noundef nonnull align 8 dereferenceable(32) %5, ptr noundef nonnull @.str.139) #29
  %36 = icmp eq i32 %35, 0
  br i1 %36, label %37, label %38

37:                                               ; preds = %30
  store i32 %.02226, ptr %29, align 4
  br label %38

38:                                               ; preds = %37, %30
  %.121 = phi i1 [ true, %37 ], [ %.02027, %30 ]
  %39 = call noundef zeroext i1 @_ZNKSt7__cxx1112basic_stringIcSt11char_traitsIcESaIcEE5emptyEv(ptr noundef nonnull align 8 dereferenceable(32) %5) #29
  %not. = xor i1 %39, true
  %spec.select = select i1 %not., i1 true, i1 %.01828
  call void @_ZNSt7__cxx1112basic_stringIcSt11char_traitsIcESaIcEED1Ev(ptr noundef nonnull align 8 dereferenceable(32) %5) #29
  %40 = add nuw nsw i32 %.02226, 1
  %exitcond.not = icmp eq i32 %40, %17
  br i1 %exitcond.not, label %._crit_edge, label %30, !llvm.loop !106

._crit_edge:                                      ; preds = %38
  %41 = xor i1 %spec.select, true
  %42 = select i1 %41, i1 true, i1 %.121
  br i1 %42, label %49, label %43

43:                                               ; preds = %._crit_edge
  %44 = getelementptr inbounds i8, ptr %0, i64 40
  %45 = load ptr, ptr %44, align 8
  %46 = load ptr, ptr %12, align 8
  %47 = getelementptr inbounds i8, ptr %46, i64 8
  %48 = call noundef ptr @_ZNKSt7__cxx1112basic_stringIcSt11char_traitsIcESaIcEE5c_strEv(ptr noundef nonnull align 8 dereferenceable(32) %47) #29
  call void (ptr, i32, ptr, ...) @_Z6pj_logP6pj_ctxiPKcz(ptr noundef %45, i32 noundef 1, ptr noundef nonnull @.str.140, ptr noundef %48)
  br label %85

49:                                               ; preds = %._crit_edge
  %50 = load ptr, ptr %12, align 8
  %51 = getelementptr inbounds i8, ptr %0, i64 68
  %52 = load i32, ptr %51, align 4
  %53 = load ptr, ptr %50, align 8
  %54 = getelementptr inbounds i8, ptr %53, i64 48
  %55 = load ptr, ptr %54, align 8
  call void %55(ptr dead_on_unwind nonnull writable sret(%"class.std::__cxx11::basic_string") align 8 %6, ptr noundef nonnull align 8 dereferenceable(144) %50, i32 noundef %52)
  %56 = call noundef zeroext i1 @_ZNKSt7__cxx1112basic_stringIcSt11char_traitsIcESaIcEE5emptyEv(ptr noundef nonnull align 8 dereferenceable(32) %6) #29
  br i1 %56, label %.thread, label %57

57:                                               ; preds = %49
  %58 = call noundef i64 @_ZNKSt7__cxx1112basic_stringIcSt11char_traitsIcESaIcEE4sizeEv(ptr noundef nonnull align 8 dereferenceable(32) %6) #29
  %59 = call noundef i64 @_ZNKSt7__cxx1112basic_stringIcSt11char_traitsIcESaIcEE4sizeEv(ptr noundef nonnull align 8 dereferenceable(32) @_ZN16DeformationModelL9STR_METREB5cxx11E) #29
  %60 = icmp eq i64 %58, %59
  br i1 %60, label %61, label %_ZStneIcSt11char_traitsIcESaIcEEbRKNSt7__cxx1112basic_stringIT_T0_T1_EESA_.exit.thread

61:                                               ; preds = %57
  %62 = call noundef ptr @_ZNKSt7__cxx1112basic_stringIcSt11char_traitsIcESaIcEE4dataEv(ptr noundef nonnull align 8 dereferenceable(32) %6) #29
  %63 = call noundef ptr @_ZNKSt7__cxx1112basic_stringIcSt11char_traitsIcESaIcEE4dataEv(ptr noundef nonnull align 8 dereferenceable(32) @_ZN16DeformationModelL9STR_METREB5cxx11E) #29
  %64 = call noundef i64 @_ZNKSt7__cxx1112basic_stringIcSt11char_traitsIcESaIcEE4sizeEv(ptr noundef nonnull align 8 dereferenceable(32) %6) #29
  %65 = icmp eq i64 %64, 0
  br i1 %65, label %.thread, label %_ZStneIcSt11char_traitsIcESaIcEEbRKNSt7__cxx1112basic_stringIT_T0_T1_EESA_.exit

_ZStneIcSt11char_traitsIcESaIcEEbRKNSt7__cxx1112basic_stringIT_T0_T1_EESA_.exit: ; preds = %61
  %bcmp.i.i = call i32 @bcmp(ptr %62, ptr %63, i64 %64)
  %.not = icmp eq i32 %bcmp.i.i, 0
  br i1 %.not, label %.thread, label %_ZStneIcSt11char_traitsIcESaIcEEbRKNSt7__cxx1112basic_stringIT_T0_T1_EESA_.exit.thread

_ZStneIcSt11char_traitsIcESaIcEEbRKNSt7__cxx1112basic_stringIT_T0_T1_EESA_.exit.thread: ; preds = %57, %_ZStneIcSt11char_traitsIcESaIcEEbRKNSt7__cxx1112basic_stringIT_T0_T1_EESA_.exit
  %66 = getelementptr inbounds i8, ptr %0, i64 40
  %67 = load ptr, ptr %66, align 8
  %68 = load ptr, ptr %12, align 8
  %69 = getelementptr inbounds i8, ptr %68, i64 8
  %70 = call noundef ptr @_ZNKSt7__cxx1112basic_stringIcSt11char_traitsIcESaIcEE5c_strEv(ptr noundef nonnull align 8 dereferenceable(32) %69) #29
  invoke void (ptr, i32, ptr, ...) @_Z6pj_logP6pj_ctxiPKcz(ptr noundef %67, i32 noundef 1, ptr noundef nonnull @.str.141, ptr noundef %70)
          to label %73 unwind label %71

71:                                               ; preds = %_ZStneIcSt11char_traitsIcESaIcEEbRKNSt7__cxx1112basic_stringIT_T0_T1_EESA_.exit.thread
  %72 = landingpad { ptr, i32 }
          cleanup
  call void @_ZNSt7__cxx1112basic_stringIcSt11char_traitsIcESaIcEED1Ev(ptr noundef nonnull align 8 dereferenceable(32) %6) #29
  resume { ptr, i32 } %72

.thread:                                          ; preds = %49, %_ZStneIcSt11char_traitsIcESaIcEEbRKNSt7__cxx1112basic_stringIT_T0_T1_EESA_.exit, %61
  store i8 1, ptr %8, align 1
  call void @_ZNSt7__cxx1112basic_stringIcSt11char_traitsIcESaIcEED1Ev(ptr noundef nonnull align 8 dereferenceable(32) %6) #29
  br label %74

73:                                               ; preds = %_ZStneIcSt11char_traitsIcESaIcEEbRKNSt7__cxx1112basic_stringIT_T0_T1_EESA_.exit.thread
  call void @_ZNSt7__cxx1112basic_stringIcSt11char_traitsIcESaIcEED1Ev(ptr noundef nonnull align 8 dereferenceable(32) %6) #29
  br label %85

74:                                               ; preds = %.thread, %4
  store float 0.000000e+00, ptr %7, align 4
  %75 = getelementptr inbounds i8, ptr %0, i64 48
  %76 = load ptr, ptr %75, align 8
  %77 = getelementptr inbounds i8, ptr %0, i64 68
  %78 = load i32, ptr %77, align 4
  %79 = load ptr, ptr %76, align 8
  %80 = getelementptr inbounds i8, ptr %79, i64 72
  %81 = load ptr, ptr %80, align 8
  %82 = call noundef zeroext i1 %81(ptr noundef nonnull align 8 dereferenceable(144) %76, i32 noundef %1, i32 noundef %2, i32 noundef %78, ptr noundef nonnull align 4 dereferenceable(4) %7)
  %83 = load float, ptr %7, align 4
  %84 = fpext float %83 to double
  store double %84, ptr %3, align 8
  br label %85

85:                                               ; preds = %73, %74, %43, %23
  %.1 = phi i1 [ %82, %74 ], [ false, %73 ], [ false, %43 ], [ false, %23 ]
  ret i1 %.1
}